target datalayout = "e-m:e-p270:32:32-p271:32:32-p272:64:64-i64:64-i128:128-f80:128-n8:16:32:64-S128"
target triple = "x86_64-pc-linux-gnu"

; Function Attrs: alwaysinline nounwind willreturn memory(none) uwtable
define internal i32 @av_clip_c(i32 noundef %0, i32 noundef %1, i32 noundef %2) #8 {
  %4 = alloca i32, align 4
  %5 = alloca i32, align 4
  %6 = alloca i32, align 4
  %7 = alloca i32, align 4
  store i32 %0, ptr %5, align 4, !tbaa !49
  store i32 %1, ptr %6, align 4, !tbaa !49
  store i32 %2, ptr %7, align 4, !tbaa !49
  %8 = load i32, ptr %5, align 4, !tbaa !49
  %9 = load i32, ptr %6, align 4, !tbaa !49
  %10 = icmp slt i32 %8, %9
  br i1 %10, label %11, label %13

11:                                               ; preds = %3
  %12 = load i32, ptr %6, align 4, !tbaa !49
  store i32 %12, ptr %4, align 4
  br label %21

13:                                               ; preds = %3
  %14 = load i32, ptr %5, align 4, !tbaa !49
  %15 = load i32, ptr %7, align 4, !tbaa !49
  %16 = icmp sgt i32 %14, %15
  br i1 %16, label %17, label %19

17:                                               ; preds = %13
  %18 = load i32, ptr %7, align 4, !tbaa !49
  store i32 %18, ptr %4, align 4
  br label %21

19:                                               ; preds = %13
  %20 = load i32, ptr %5, align 4, !tbaa !49
  store i32 %20, ptr %4, align 4
  br label %21

21:                                               ; preds = %19, %17, %11
  %22 = load i32, ptr %4, align 4
  ret i32 %22
}

; Function Attrs: nounwind uwtable
define internal void @draw_sample_line_gray(ptr noundef %0, i32 noundef %1, i32 noundef %2, ptr noundef %3, ptr noundef %4, i32 noundef %5) #1 {
  %7 = alloca ptr, align 8
  %8 = alloca i32, align 4
  %9 = alloca i32, align 4
  %10 = alloca ptr, align 8
  %11 = alloca ptr, align 8
  %12 = alloca i32, align 4
  %13 = alloca i32, align 4
  %14 = alloca i32, align 4
  %15 = alloca i32, align 4
  %16 = alloca i16, align 2
  store ptr %0, ptr %7, align 8, !tbaa !69
  store i32 %1, ptr %8, align 4, !tbaa !49
  store i32 %2, ptr %9, align 4, !tbaa !49
  store ptr %3, ptr %10, align 8, !tbaa !92
  store ptr %4, ptr %11, align 8, !tbaa !69
  store i32 %5, ptr %12, align 4, !tbaa !49
  call void @llvm.lifetime.start.p0(i64 4, ptr %13) #13
  call void @llvm.lifetime.start.p0(i64 4, ptr %14) #13
  %17 = load i32, ptr %8, align 4, !tbaa !49
  %18 = sdiv i32 %17, 2
  store i32 %18, ptr %14, align 4, !tbaa !49
  call void @llvm.lifetime.start.p0(i64 4, ptr %15) #13
  %19 = load i32, ptr %12, align 4, !tbaa !49
  %20 = load i32, ptr %8, align 4, !tbaa !49
  %21 = sub nsw i32 %20, 1
  %22 = call i32 @av_clip_c(i32 noundef %19, i32 noundef 0, i32 noundef %21) #15
  store i32 %22, ptr %15, align 4, !tbaa !49
  %23 = load i32, ptr %14, align 4, !tbaa !49
  %24 = load i32, ptr %15, align 4, !tbaa !49
  %25 = icmp sgt i32 %23, %24
  br i1 %25, label %26, label %35

26:                                               ; preds = %6
  br label %27

27:                                               ; preds = %26
  call void @llvm.lifetime.start.p0(i64 2, ptr %16) #13
  %28 = load i32, ptr %15, align 4, !tbaa !49
  %29 = trunc i32 %28 to i16
  store i16 %29, ptr %16, align 2, !tbaa !93
  %30 = load i32, ptr %14, align 4, !tbaa !49
  store i32 %30, ptr %15, align 4, !tbaa !49
  %31 = load i16, ptr %16, align 2, !tbaa !93
  %32 = sext i16 %31 to i32
  store i32 %32, ptr %14, align 4, !tbaa !49
  call void @llvm.lifetime.end.p0(i64 2, ptr %16) #13
  br label %33

33:                                               ; preds = %27
  br label %34

34:                                               ; preds = %33
  br label %35

35:                                               ; preds = %34, %6
  %36 = load i32, ptr %14, align 4, !tbaa !49
  store i32 %36, ptr %13, align 4, !tbaa !49
  br label %37

37:                                               ; preds = %56, %35
  %38 = load i32, ptr %13, align 4, !tbaa !49
  %39 = load i32, ptr %15, align 4, !tbaa !49
  %40 = icmp slt i32 %38, %39
  br i1 %40, label %41, label %59

41:                                               ; preds = %37
  %42 = load ptr, ptr %11, align 8, !tbaa !69
  %43 = getelementptr inbounds i8, ptr %42, i64 0
  %44 = load i8, ptr %43, align 1, !tbaa !89
  %45 = zext i8 %44 to i32
  %46 = load ptr, ptr %7, align 8, !tbaa !69
  %47 = load i32, ptr %13, align 4, !tbaa !49
  %48 = load i32, ptr %9, align 4, !tbaa !49
  %49 = mul nsw i32 %47, %48
  %50 = sext i32 %49 to i64
  %51 = getelementptr inbounds i8, ptr %46, i64 %50
  %52 = load i8, ptr %51, align 1, !tbaa !89
  %53 = zext i8 %52 to i32
  %54 = add nsw i32 %53, %45
  %55 = trunc i32 %54 to i8
  store i8 %55, ptr %51, align 1, !tbaa !89
  br label %56

56:                                               ; preds = %41
  %57 = load i32, ptr %13, align 4, !tbaa !49
  %58 = add nsw i32 %57, 1
  store i32 %58, ptr %13, align 4, !tbaa !49
  br label %37, !llvm.loop !95

59:                                               ; preds = %37
  call void @llvm.lifetime.end.p0(i64 4, ptr %15) #13
  call void @llvm.lifetime.end.p0(i64 4, ptr %14) #13
  call void @llvm.lifetime.end.p0(i64 4, ptr %13) #13
  ret void
}