; Function Attrs: nofree norecurse nosync nounwind memory(argmem: readwrite) uwtable
define internal void @draw_sample_line_gray(ptr noundef captures(none) %0, i32 noundef %1, i32 noundef %2, ptr readnone captures(none) %3, ptr noundef readonly captures(none) %4, i32 noundef %5) #7 {
  %7 = sdiv i32 %1, 2
  %8 = add nsw i32 %1, -1
  %9 = icmp slt i32 %5, 0
  %..i = tail call i32 @llvm.smin.i32(i32 %5, i32 %8)
  %.0.i = select i1 %9, i32 0, i32 %..i
  %10 = icmp sgt i32 %7, %.0.i
  %sext = shl i32 %.0.i, 16
  %11 = ashr exact i32 %sext, 16
  %.016 = select i1 %10, i32 %11, i32 %7
  %.015 = tail call i32 @llvm.smax.i32(i32 %7, i32 %.0.i)
  %12 = icmp slt i32 %.016, %.015
  br i1 %12, label %.lr.ph.preheader, label %._crit_edge

.lr.ph.preheader:                                 ; preds = %6
  %13 = sext i32 %.016 to i64
  %14 = sext i32 %2 to i64
  %wide.trip.count = sext i32 %.015 to i64
  br label %.lr.ph

.lr.ph:                                           ; preds = %.lr.ph.preheader, %.lr.ph
  %indvars.iv = phi i64 [ %13, %.lr.ph.preheader ], [ %indvars.iv.next, %.lr.ph ]
  %15 = load i8, ptr %4, align 1, !tbaa !96
  %16 = mul nsw i64 %indvars.iv, %14
  %17 = getelementptr inbounds i8, ptr %0, i64 %16
  %18 = load i8, ptr %17, align 1, !tbaa !96
  %19 = add i8 %18, %15
  store i8 %19, ptr %17, align 1, !tbaa !96
  %indvars.iv.next = add nsw i64 %indvars.iv, 1
  %exitcond.not = icmp eq i64 %indvars.iv.next, %wide.trip.count
  br i1 %exitcond.not, label %._crit_edge, label %.lr.ph, !llvm.loop !99

._crit_edge:                                      ; preds = %.lr.ph, %6
  ret void
}